target datalayout = "e-m:e-p270:32:32-p271:32:32-p272:64:64-i64:64-i128:128-f80:128-n8:16:32:64-S128"
target triple = "x86_64-pc-linux-gnu"

%struct.dt_pthread_mutex_t = type { %union.pthread_mutex_t }
%union.pthread_mutex_t = type { %struct.__pthread_mutex_s }
%struct.__pthread_mutex_s = type { i32, i32, i32, i32, i32, i16, i16, %struct.__pthread_internal_list }
%struct.__pthread_internal_list = type { ptr, ptr }
%struct.dt_camera_t = type { ptr, ptr, %struct.CameraText, ptr, ptr, %struct.dt_pthread_mutex_t, i32, i32, i32, i32, i32, i32, i32, i32, i32, ptr, %struct.dt_pthread_mutex_t, ptr, %struct.anon, ptr, ptr, i32, i32, i32, i32, ptr, i32, i32, i32, i32, i32, i32, i32, i32, i64, %struct.dt_pthread_mutex_t, %struct.dt_pthread_mutex_t }
%struct.CameraText = type { [32768 x i8] }
%struct.anon = type { ptr, i32 }

; Function Attrs: inlinehint nounwind uwtable
define internal i32 @dt_pthread_mutex_destroy(ptr noundef %0) #4 {
  %2 = alloca ptr, align 8
  %3 = alloca i32, align 4
  store ptr %0, ptr %2, align 8, !tbaa !91
  call void @llvm.lifetime.start.p0(i64 4, ptr %3) #10
  %4 = load ptr, ptr %2, align 8, !tbaa !91
  %5 = getelementptr inbounds nuw %struct.dt_pthread_mutex_t, ptr %4, i32 0, i32 0
  %6 = call i32 @pthread_mutex_destroy(ptr noundef %5) #10
  store i32 %6, ptr %3, align 4, !tbaa !64
  %7 = load i32, ptr %3, align 4, !tbaa !64
  call void @llvm.lifetime.end.p0(i64 4, ptr %3) #10
  ret i32 %7
}

; Function Attrs: nounwind uwtable
define internal void @dt_camctl_camera_destroy_struct(ptr noundef %0) #0 {
  %2 = alloca ptr, align 8
  store ptr %0, ptr %2, align 8, !tbaa !21
  %3 = load ptr, ptr %2, align 8, !tbaa !21
  %4 = icmp ne ptr %3, null
  br i1 %4, label %6, label %5

5:                                                ; preds = %1
  br label %37

6:                                                ; preds = %1
  %7 = load ptr, ptr %2, align 8, !tbaa !21
  %8 = getelementptr inbounds nuw %struct.dt_camera_t, ptr %7, i32 0, i32 25
  %9 = load ptr, ptr %8, align 8, !tbaa !191
  %10 = icmp ne ptr %9, null
  br i1 %10, label %11, label %17

11:                                               ; preds = %6
  %12 = load ptr, ptr %2, align 8, !tbaa !21
  %13 = getelementptr inbounds nuw %struct.dt_camera_t, ptr %12, i32 0, i32 25
  %14 = load ptr, ptr %13, align 8, !tbaa !191
  call void @free(ptr noundef %14) #10
  %15 = load ptr, ptr %2, align 8, !tbaa !21
  %16 = getelementptr inbounds nuw %struct.dt_camera_t, ptr %15, i32 0, i32 25
  store ptr null, ptr %16, align 8, !tbaa !191
  br label %17

17:                                               ; preds = %11, %6
  %18 = load ptr, ptr %2, align 8, !tbaa !21
  %19 = getelementptr inbounds nuw %struct.dt_camera_t, ptr %18, i32 0, i32 0
  %20 = load ptr, ptr %19, align 8, !tbaa !88
  call void @g_free(ptr noundef %20)
  %21 = load ptr, ptr %2, align 8, !tbaa !21
  %22 = getelementptr inbounds nuw %struct.dt_camera_t, ptr %21, i32 0, i32 1
  %23 = load ptr, ptr %22, align 8, !tbaa !89
  call void @g_free(ptr noundef %23)
  %24 = load ptr, ptr %2, align 8, !tbaa !21
  %25 = getelementptr inbounds nuw %struct.dt_camera_t, ptr %24, i32 0, i32 16
  %26 = call i32 @dt_pthread_mutex_destroy(ptr noundef %25)
  %27 = load ptr, ptr %2, align 8, !tbaa !21
  %28 = getelementptr inbounds nuw %struct.dt_camera_t, ptr %27, i32 0, i32 5
  %29 = call i32 @dt_pthread_mutex_destroy(ptr noundef %28)
  %30 = load ptr, ptr %2, align 8, !tbaa !21
  %31 = getelementptr inbounds nuw %struct.dt_camera_t, ptr %30, i32 0, i32 35
  %32 = call i32 @dt_pthread_mutex_destroy(ptr noundef %31)
  %33 = load ptr, ptr %2, align 8, !tbaa !21
  %34 = getelementptr inbounds nuw %struct.dt_camera_t, ptr %33, i32 0, i32 36
  %35 = call i32 @dt_pthread_mutex_destroy(ptr noundef %34)
  %36 = load ptr, ptr %2, align 8, !tbaa !21
  call void @g_free(ptr noundef %36)
  br label %37

37:                                               ; preds = %17, %5
  ret void
}