; Function Attrs: nounwind uwtable
define internal fastcc void @dt_camctl_camera_destroy_struct(ptr noundef %0) unnamed_addr #0 {
  %.not = icmp eq ptr %0, null
  br i1 %.not, label %18, label %2

2:                                                ; preds = %1
  %3 = getelementptr inbounds nuw i8, ptr %0, i64 32984
  %4 = load ptr, ptr %3, align 8, !tbaa !183
  %.not12 = icmp eq ptr %4, null
  br i1 %.not12, label %6, label %5

5:                                                ; preds = %2
  tail call void @free(ptr noundef nonnull %4) #15
  store ptr null, ptr %3, align 8, !tbaa !183
  br label %6

6:                                                ; preds = %5, %2
  %7 = load ptr, ptr %0, align 8, !tbaa !80
  tail call void @g_free(ptr noundef %7) #15
  %8 = getelementptr inbounds nuw i8, ptr %0, i64 8
  %9 = load ptr, ptr %8, align 8, !tbaa !81
  tail call void @g_free(ptr noundef %9) #15
  %10 = getelementptr inbounds nuw i8, ptr %0, i64 32888
  %11 = tail call i32 @pthread_mutex_destroy(ptr noundef nonnull %10) #15
  %12 = getelementptr inbounds nuw i8, ptr %0, i64 32800
  %13 = tail call i32 @pthread_mutex_destroy(ptr noundef nonnull %12) #15
  %14 = getelementptr inbounds nuw i8, ptr %0, i64 33032
  %15 = tail call i32 @pthread_mutex_destroy(ptr noundef nonnull %14) #15
  %16 = getelementptr inbounds nuw i8, ptr %0, i64 33072
  %17 = tail call i32 @pthread_mutex_destroy(ptr noundef nonnull %16) #15
  tail call void @g_free(ptr noundef nonnull %0) #15
  br label %18

18:                                               ; preds = %1, %6
  ret void
}